; Function Attrs: mustprogress nounwind uwtable
define hidden void @_ZN4cvc58internal13preprocessing4util22ContainsTermITEVisitor14garbageCollectEv(ptr noundef nonnull align 8 captures(none) dereferenceable(56) %0) local_unnamed_addr #6 align 2 personality ptr @__gxx_personality_v0 {
  %2 = getelementptr inbounds nuw i8, ptr %0, i64 16
  %3 = load ptr, ptr %2, align 8, !tbaa !310
  %.not5.i.i.i = icmp eq ptr %3, null
  br i1 %.not5.i.i.i, label %_ZNSt13unordered_mapIN4cvc58internal12NodeTemplateILb1EEEbSt4hashIS3_ESt8equal_toIS3_ESaISt4pairIKS3_bEEE5clearEv.exit, label %.lr.ph.i.i.i

.lr.ph.i.i.i:                                     ; preds = %1, %_ZNSt8__detail16_Hashtable_allocISaINS_10_Hash_nodeISt4pairIKN4cvc58internal12NodeTemplateILb1EEEbELb1EEEEE18_M_deallocate_nodeEPS9_.exit.i.i.i
  %.06.i.i.i = phi ptr [ %4, %_ZNSt8__detail16_Hashtable_allocISaINS_10_Hash_nodeISt4pairIKN4cvc58internal12NodeTemplateILb1EEEbELb1EEEEE18_M_deallocate_nodeEPS9_.exit.i.i.i ], [ %3, %1 ]
  %4 = load ptr, ptr %.06.i.i.i, align 8, !tbaa !75
  %5 = getelementptr inbounds nuw i8, ptr %.06.i.i.i, i64 8
  %6 = load ptr, ptr %5, align 8, !tbaa !69
  %7 = load i64, ptr %6, align 8
  %8 = and i64 %7, 1152920405095219200
  %.not.i.i.i.i.i.i.i.i.i = icmp eq i64 %8, 1152920405095219200
  br i1 %.not.i.i.i.i.i.i.i.i.i, label %_ZNSt8__detail16_Hashtable_allocISaINS_10_Hash_nodeISt4pairIKN4cvc58internal12NodeTemplateILb1EEEbELb1EEEEE18_M_deallocate_nodeEPS9_.exit.i.i.i, label %9, !prof !71

9:                                                ; preds = %.lr.ph.i.i.i
  %10 = add i64 %7, 1152920405095219200
  %11 = and i64 %10, 1152920405095219200
  %12 = and i64 %7, -1152920405095219201
  %13 = or disjoint i64 %11, %12
  store i64 %13, ptr %6, align 8
  %14 = icmp eq i64 %11, 0
  br i1 %14, label %15, label %_ZNSt8__detail16_Hashtable_allocISaINS_10_Hash_nodeISt4pairIKN4cvc58internal12NodeTemplateILb1EEEbELb1EEEEE18_M_deallocate_nodeEPS9_.exit.i.i.i, !prof !71

15:                                               ; preds = %9
  invoke void @_ZN4cvc58internal4expr9NodeValue15markForDeletionEv(ptr noundef nonnull align 8 dereferenceable(24) %6)
          to label %_ZNSt8__detail16_Hashtable_allocISaINS_10_Hash_nodeISt4pairIKN4cvc58internal12NodeTemplateILb1EEEbELb1EEEEE18_M_deallocate_nodeEPS9_.exit.i.i.i unwind label %16

16:                                               ; preds = %15
  %17 = landingpad { ptr, i32 }
          catch ptr null
  %18 = extractvalue { ptr, i32 } %17, 0
  tail call void @__clang_call_terminate(ptr %18) #30
  unreachable

_ZNSt8__detail16_Hashtable_allocISaINS_10_Hash_nodeISt4pairIKN4cvc58internal12NodeTemplateILb1EEEbELb1EEEEE18_M_deallocate_nodeEPS9_.exit.i.i.i: ; preds = %15, %9, %.lr.ph.i.i.i
  tail call void @_ZdlPvm(ptr noundef nonnull %.06.i.i.i, i64 noundef 32) #29
  %.not.i.i.i = icmp eq ptr %4, null
  br i1 %.not.i.i.i, label %_ZNSt13unordered_mapIN4cvc58internal12NodeTemplateILb1EEEbSt4hashIS3_ESt8equal_toIS3_ESaISt4pairIKS3_bEEE5clearEv.exit, label %.lr.ph.i.i.i, !llvm.loop !311

_ZNSt13unordered_mapIN4cvc58internal12NodeTemplateILb1EEEbSt4hashIS3_ESt8equal_toIS3_ESaISt4pairIKS3_bEEE5clearEv.exit: ; preds = %_ZNSt8__detail16_Hashtable_allocISaINS_10_Hash_nodeISt4pairIKN4cvc58internal12NodeTemplateILb1EEEbELb1EEEEE18_M_deallocate_nodeEPS9_.exit.i.i.i, %1
  %19 = load ptr, ptr %0, align 8, !tbaa !6
  %20 = getelementptr inbounds nuw i8, ptr %0, i64 8
  %21 = load i64, ptr %20, align 8, !tbaa !16
  %22 = shl i64 %21, 3
  tail call void @llvm.memset.p0.i64(ptr align 8 %19, i8 0, i64 %22, i1 false)
  tail call void @llvm.memset.p0.i64(ptr noundef nonnull align 8 dereferenceable(16) %2, i8 0, i64 16, i1 false)
  ret void
}